; Function Attrs: uwtable
define hidden void @_ZThn16_N19OpenColorIO_v2_4dev33DynamicPropertyGradingPrimaryImpl8setValueERKNS_14GradingPrimaryE(ptr noundef %this, ptr noundef nonnull align 8 dereferenceable(272) %value) unnamed_addr #8 align 2 {
entry:
  %m_style.i = getelementptr inbounds i8, ptr %this, i64 8
  %0 = load i32, ptr %m_style.i, align 8
  tail call void @_ZNK19OpenColorIO_v2_4dev14GradingPrimary8validateENS_12GradingStyleE(ptr noundef nonnull align 8 dereferenceable(272) %value, i32 noundef %0)
  %m_value.i = getelementptr inbounds i8, ptr %this, i64 16
  tail call void @llvm.memcpy.p0.p0.i64(ptr noundef nonnull align 8 dereferenceable(272) %m_value.i, ptr noundef nonnull align 8 dereferenceable(272) %value, i64 272, i1 false)
  %m_preRenderValues.i = getelementptr inbounds i8, ptr %this, i64 288
  %1 = load i32, ptr %m_style.i, align 8
  %m_direction.i = getelementptr inbounds i8, ptr %this, i64 12
  %2 = load i32, ptr %m_direction.i, align 4
  tail call void @_ZN19OpenColorIO_v2_4dev23GradingPrimaryPreRender6updateENS_12GradingStyleENS_18TransformDirectionERKNS_14GradingPrimaryE(ptr noundef nonnull align 8 dereferenceable(82) %m_preRenderValues.i, i32 noundef %1, i32 noundef %2, ptr noundef nonnull align 8 dereferenceable(272) %m_value.i) #20
  ret void
}